; Function Attrs: cold nofree nounwind uwtable
define i64 @duckdb_je_malloc_snprintf(ptr noundef writeonly captures(none) %0, i64 noundef %1, ptr noundef %2, ...) local_unnamed_addr #8 {
  %4 = alloca [1 x %struct.__va_list_tag], align 16
  call void @llvm.lifetime.start.p0(i64 24, ptr nonnull %4) #14
  call void @llvm.va_start.p0(ptr nonnull %4)
  %5 = call i64 @duckdb_je_malloc_vsnprintf(ptr noundef %0, i64 noundef %1, ptr noundef %2, ptr noundef nonnull %4) #16
  call void @llvm.va_end.p0(ptr nonnull %4)
  call void @llvm.lifetime.end.p0(i64 24, ptr nonnull %4) #14
  ret i64 %5
}